target datalayout = "e-m:e-p270:32:32-p271:32:32-p272:64:64-i64:64-i128:128-f80:128-n8:16:32:64-S128"
target triple = "x86_64-pc-linux-gnu"

@.str.28 = private unnamed_addr constant [17 x i8] c"*Invalid number*\00", align 1
@.str.29 = private unnamed_addr constant [5 x i8] c"%llu\00", align 1

; Function Attrs: nounwind uwtable
define hidden ptr @file_fmtnum(ptr noundef %0, i64 noundef %1, ptr noundef %2, i32 noundef %3) #0 {
  %5 = alloca ptr, align 8
  %6 = alloca ptr, align 8
  %7 = alloca i64, align 8
  %8 = alloca ptr, align 8
  %9 = alloca i32, align 4
  %10 = alloca ptr, align 8
  %11 = alloca i64, align 8
  %12 = alloca i32, align 4
  store ptr %0, ptr %6, align 8, !tbaa !22
  store i64 %1, ptr %7, align 8, !tbaa !20
  store ptr %2, ptr %8, align 8, !tbaa !22
  store i32 %3, ptr %9, align 4, !tbaa !30
  call void @llvm.lifetime.start.p0(i64 8, ptr %10) #8
  call void @llvm.lifetime.start.p0(i64 8, ptr %11) #8
  %13 = call ptr @__errno_location() #10
  store i32 0, ptr %13, align 4, !tbaa !30
  %14 = load ptr, ptr %8, align 8, !tbaa !22
  %15 = load i32, ptr %9, align 4, !tbaa !30
  %16 = call i64 @strtoull(ptr noundef %14, ptr noundef %10, i32 noundef %15) #8
  store i64 %16, ptr %11, align 8, !tbaa !43
  %17 = load ptr, ptr %10, align 8, !tbaa !22
  %18 = load i8, ptr %17, align 1, !tbaa !11
  %19 = sext i8 %18 to i32
  %20 = icmp ne i32 %19, 0
  br i1 %20, label %25, label %21

21:                                               ; preds = %4
  %22 = call ptr @__errno_location() #10
  %23 = load i32, ptr %22, align 4, !tbaa !30
  %24 = icmp ne i32 %23, 0
  br i1 %24, label %25, label %31

25:                                               ; preds = %21, %4
  br label %26

26:                                               ; preds = %37, %25
  %27 = load ptr, ptr %6, align 8, !tbaa !22
  %28 = load i64, ptr %7, align 8, !tbaa !20
  %29 = call i64 @php_strlcpy(ptr noundef %27, ptr noundef @.str.28, i64 noundef %28)
  %30 = load ptr, ptr %6, align 8, !tbaa !22
  store ptr %30, ptr %5, align 8
  store i32 1, ptr %12, align 4
  br label %40

31:                                               ; preds = %21
  %32 = load ptr, ptr %6, align 8, !tbaa !22
  %33 = load i64, ptr %7, align 8, !tbaa !20
  %34 = load i64, ptr %11, align 8, !tbaa !43
  %35 = call i32 (ptr, i64, ptr, ...) @ap_php_snprintf(ptr noundef %32, i64 noundef %33, ptr noundef @.str.29, i64 noundef %34)
  %36 = icmp slt i32 %35, 0
  br i1 %36, label %37, label %38

37:                                               ; preds = %31
  br label %26

38:                                               ; preds = %31
  %39 = load ptr, ptr %6, align 8, !tbaa !22
  store ptr %39, ptr %5, align 8
  store i32 1, ptr %12, align 4
  br label %40

40:                                               ; preds = %38, %26
  call void @llvm.lifetime.end.p0(i64 8, ptr %11) #8
  call void @llvm.lifetime.end.p0(i64 8, ptr %10) #8
  %41 = load ptr, ptr %5, align 8
  ret ptr %41
}