; Function Attrs: nounwind uwtable
define hidden noundef ptr @file_fmtnum(ptr noundef returned %0, i64 noundef %1, ptr noundef %2, i32 noundef %3) local_unnamed_addr #4 {
  %5 = alloca ptr, align 8
  call void @llvm.lifetime.start.p0(i64 8, ptr nonnull %5) #13
  %6 = tail call ptr @__errno_location() #17
  store i32 0, ptr %6, align 4, !tbaa !37
  %7 = call i64 @strtoull(ptr noundef %2, ptr noundef nonnull %5, i32 noundef %3) #13
  %8 = load ptr, ptr %5, align 8, !tbaa !20
  %9 = load i8, ptr %8, align 1, !tbaa !9
  %.not = icmp eq i8 %9, 0
  br i1 %.not, label %10, label %12

10:                                               ; preds = %4
  %11 = load i32, ptr %6, align 4, !tbaa !37
  %.not9 = icmp eq i32 %11, 0
  br i1 %.not9, label %14, label %12

12:                                               ; preds = %14, %4, %10
  %13 = tail call i64 @php_strlcpy(ptr noundef %0, ptr noundef nonnull @.str.28, i64 noundef %1) #13
  br label %17

14:                                               ; preds = %10
  %15 = tail call i32 (ptr, i64, ptr, ...) @ap_php_snprintf(ptr noundef %0, i64 noundef %1, ptr noundef nonnull @.str.29, i64 noundef %7) #13
  %16 = icmp slt i32 %15, 0
  br i1 %16, label %12, label %17

17:                                               ; preds = %14, %12
  call void @llvm.lifetime.end.p0(i64 8, ptr nonnull %5) #13
  ret ptr %0
}